; Function Attrs: mustprogress uwtable
define hidden void @_ZN4cvc58internal4prop13CadicalSolver3popEv(ptr nocapture noundef nonnull readonly align 8 dereferenceable(144) %this) unnamed_addr #3 align 2 {
entry:
  %d_context = getelementptr inbounds i8, ptr %this, i64 40
  %0 = load ptr, ptr %d_context, align 8
  tail call void @_ZN4cvc57context7Context3popEv(ptr noundef nonnull align 8 dereferenceable(48) %0)
  %d_propagator = getelementptr inbounds i8, ptr %this, i64 56
  %1 = load ptr, ptr %d_propagator, align 8
  tail call void @_ZN4cvc58internal4prop17CadicalPropagator8user_popEv(ptr noundef nonnull align 8 dereferenceable(482) %1)
  ret void
}